; ModuleID = 'bench/gromacs/original/event.cpp.ll'
source_filename = "bench/gromacs/original/event.cpp.ll"
target datalayout = "e-m:e-p270:32:32-p271:32:32-p272:64:64-i64:64-i128:128-f80:128-n8:16:32:64-S128"
target triple = "x86_64-pc-linux-gnu"

; Function Attrs: mustprogress nofree norecurse nosync nounwind willreturn memory(argmem: write) uwtable
define void @_Z15tMPI_Event_initP12tMPI_Event_t(ptr nocapture noundef writeonly %0) local_unnamed_addr #0 {
  store i32 0, ptr %0, align 4
  %2 = getelementptr inbounds i8, ptr %0, i64 64
  store i32 0, ptr %2, align 4
  ret void
}

; Function Attrs: mustprogress nofree norecurse nosync nounwind willreturn memory(argmem: write) uwtable
define void @_Z18tMPI_Event_destroyP12tMPI_Event_t(ptr nocapture noundef writeonly %0) local_unnamed_addr #0 {
  store i32 0, ptr %0, align 4
  %2 = getelementptr inbounds i8, ptr %0, i64 64
  store i32 0, ptr %2, align 4
  ret void
}

; Function Attrs: mustprogress nofree norecurse nounwind uwtable
define noundef i32 @_Z15tMPI_Event_waitP12tMPI_Event_t(ptr nocapture noundef readonly %0) local_unnamed_addr #1 {
  %2 = getelementptr inbounds i8, ptr %0, i64 64
  %3 = load i32, ptr %0, align 4
  %4 = load i32, ptr %2, align 4
  %.not4 = icmp sgt i32 %3, %4
  br i1 %.not4, label %._crit_edge, label %.lr.ph

.lr.ph:                                           ; preds = %1, %.lr.ph
  fence seq_cst
  %5 = load i32, ptr %0, align 4
  %6 = load i32, ptr %2, align 4
  %.not = icmp sgt i32 %5, %6
  br i1 %.not, label %._crit_edge, label %.lr.ph, !llvm.loop !4

._crit_edge:                                      ; preds = %.lr.ph, %1
  fence seq_cst
  %7 = load i32, ptr %0, align 4
  %8 = load i32, ptr %2, align 4
  %9 = sub nsw i32 %7, %8
  ret i32 %9
}


!llvm.module.flags = !{!0, !1, !2, !3}

!0 = !{i32 1, !"wchar_size", i32 4}
!1 = !{i32 8, !"PIC Level", i32 2}
!2 = !{i32 7, !"uwtable", i32 2}
!3 = !{i32 7, !"frame-pointer", i32 2}
!4 = distinct !{!4, !5}
!5 = !{!"llvm.loop.mustprogress"}
